; ModuleID = '31/1291.c'
source_filename = "31/1291.c"
target datalayout = "e-m:e-p270:32:32-p271:32:32-p272:64:64-i64:64-f80:128-n8:16:32:64-S128"
target triple = "x86_64-pc-linux-gnu"

%struct.student = type { [100 x i8], %struct.student* }

@.str = private unnamed_addr constant [3 x i8] c"%s\00", align 1
@.str.1 = private unnamed_addr constant [4 x i8] c"end\00", align 1
@.str.2 = private unnamed_addr constant [4 x i8] c"%s \00", align 1
@.str.3 = private unnamed_addr constant [2 x i8] c"\0A\00", align 1

; Function Attrs: noinline nounwind uwtable
define dso_local i32 @main() #0 {
  %1 = alloca i32, align 4
  %2 = alloca %struct.student*, align 8
  %3 = alloca %struct.student*, align 8
  %4 = alloca %struct.student*, align 8
  %5 = alloca i32, align 4
  %6 = alloca i32, align 4
  %7 = alloca i32, align 4
  %8 = alloca i32, align 4
  %9 = alloca i32, align 4
  %10 = alloca %struct.student*, align 8
  store i32 0, i32* %1, align 4
  store i32 0, i32* %5, align 4
  store i32 0, i32* %6, align 4
  store i32 0, i32* %7, align 4
  store i32 0, i32* %8, align 4
  %11 = call noalias i8* @malloc(i64 100) #4
  %12 = bitcast i8* %11 to %struct.student*
  store %struct.student* %12, %struct.student** %3, align 8
  %13 = load %struct.student*, %struct.student** %3, align 8
  %14 = getelementptr inbounds %struct.student, %struct.student* %13, i32 0, i32 0
  %15 = getelementptr inbounds [100 x i8], [100 x i8]* %14, i64 0, i64 0
  %16 = call i32 (i8*, ...) @__isoc99_scanf(i8* getelementptr inbounds ([3 x i8], [3 x i8]* @.str, i64 0, i64 0), i8* %15)
  %17 = load %struct.student*, %struct.student** %3, align 8
  %18 = getelementptr inbounds %struct.student, %struct.student* %17, i32 0, i32 1
  store %struct.student* null, %struct.student** %18, align 8
  %19 = load %struct.student*, %struct.student** %3, align 8
  store %struct.student* %19, %struct.student** %2, align 8
  br label %20

20:                                               ; preds = %40, %0
  %21 = load %struct.student*, %struct.student** %3, align 8
  %22 = getelementptr inbounds %struct.student, %struct.student* %21, i32 0, i32 0
  %23 = getelementptr inbounds [100 x i8], [100 x i8]* %22, i64 0, i64 0
  %24 = call i32 @strcmp(i8* %23, i8* getelementptr inbounds ([4 x i8], [4 x i8]* @.str.1, i64 0, i64 0)) #5
  %25 = icmp ne i32 %24, 0
  br i1 %25, label %26, label %43

26:                                               ; preds = %20
  %27 = load %struct.student*, %struct.student** %3, align 8
  store %struct.student* %27, %struct.student** %4, align 8
  %28 = call noalias i8* @malloc(i64 100) #4
  %29 = bitcast i8* %28 to %struct.student*
  store %struct.student* %29, %struct.student** %3, align 8
  %30 = load %struct.student*, %struct.student** %3, align 8
  %31 = getelementptr inbounds %struct.student, %struct.student* %30, i32 0, i32 0
  %32 = getelementptr inbounds [100 x i8], [100 x i8]* %31, i64 0, i64 0
  %33 = call i32 (i8*, ...) @__isoc99_scanf(i8* getelementptr inbounds ([3 x i8], [3 x i8]* @.str, i64 0, i64 0), i8* %32)
  %34 = load %struct.student*, %struct.student** %3, align 8
  %35 = getelementptr inbounds %struct.student, %struct.student* %34, i32 0, i32 1
  store %struct.student* null, %struct.student** %35, align 8
  %36 = load %struct.student*, %struct.student** %3, align 8
  %37 = load %struct.student*, %struct.student** %4, align 8
  %38 = getelementptr inbounds %struct.student, %struct.student* %37, i32 0, i32 1
  store %struct.student* %36, %struct.student** %38, align 8
  %39 = load %struct.student*, %struct.student** %3, align 8
  store %struct.student* %39, %struct.student** %4, align 8
  br label %40

40:                                               ; preds = %26
  %41 = load i32, i32* %5, align 4
  %42 = add nsw i32 %41, 1
  store i32 %42, i32* %5, align 4
  br label %20

43:                                               ; preds = %20
  %44 = load %struct.student*, %struct.student** %2, align 8
  store %struct.student* %44, %struct.student** %10, align 8
  store i32 0, i32* %6, align 4
  %45 = load i32, i32* %5, align 4
  %46 = sdiv i32 %45, 6
  store i32 %46, i32* %9, align 4
  store i32 1, i32* %7, align 4
  br label %47

47:                                               ; preds = %103, %43
  %48 = load i32, i32* %7, align 4
  %49 = load i32, i32* %9, align 4
  %50 = icmp sle i32 %48, %49
  br i1 %50, label %51, label %106

51:                                               ; preds = %47
  %52 = load %struct.student*, %struct.student** %2, align 8
  store %struct.student* %52, %struct.student** %10, align 8
  store i32 0, i32* %6, align 4
  br label %53

53:                                               ; preds = %65, %51
  %54 = load %struct.student*, %struct.student** %10, align 8
  %55 = icmp ne %struct.student* %54, null
  br i1 %55, label %56, label %63

56:                                               ; preds = %53
  %57 = load i32, i32* %6, align 4
  %58 = load i32, i32* %5, align 4
  %59 = load i32, i32* %7, align 4
  %60 = mul nsw i32 6, %59
  %61 = sub nsw i32 %58, %60
  %62 = icmp ne i32 %57, %61
  br label %63

63:                                               ; preds = %56, %53
  %64 = phi i1 [ false, %53 ], [ %62, %56 ]
  br i1 %64, label %65, label %71

65:                                               ; preds = %63
  %66 = load %struct.student*, %struct.student** %10, align 8
  %67 = getelementptr inbounds %struct.student, %struct.student* %66, i32 0, i32 1
  %68 = load %struct.student*, %struct.student** %67, align 8
  store %struct.student* %68, %struct.student** %10, align 8
  %69 = load i32, i32* %6, align 4
  %70 = add nsw i32 %69, 1
  store i32 %70, i32* %6, align 4
  br label %53

71:                                               ; preds = %63
  %72 = load %struct.student*, %struct.student** %10, align 8
  %73 = icmp ne %struct.student* %72, null
  br i1 %73, label %74, label %101

74:                                               ; preds = %71
  %75 = load i32, i32* %6, align 4
  %76 = load i32, i32* %5, align 4
  %77 = load i32, i32* %7, align 4
  %78 = mul nsw i32 6, %77
  %79 = sub nsw i32 %76, %78
  %80 = icmp eq i32 %75, %79
  br i1 %80, label %81, label %101

81:                                               ; preds = %74
  store i32 0, i32* %8, align 4
  br label %82

82:                                               ; preds = %93, %81
  %83 = load i32, i32* %8, align 4
  %84 = icmp slt i32 %83, 5
  br i1 %84, label %85, label %96

85:                                               ; preds = %82
  %86 = load %struct.student*, %struct.student** %10, align 8
  %87 = getelementptr inbounds %struct.student, %struct.student* %86, i32 0, i32 0
  %88 = getelementptr inbounds [100 x i8], [100 x i8]* %87, i64 0, i64 0
  %89 = call i32 (i8*, ...) @printf(i8* getelementptr inbounds ([4 x i8], [4 x i8]* @.str.2, i64 0, i64 0), i8* %88)
  %90 = load %struct.student*, %struct.student** %10, align 8
  %91 = getelementptr inbounds %struct.student, %struct.student* %90, i32 0, i32 1
  %92 = load %struct.student*, %struct.student** %91, align 8
  store %struct.student* %92, %struct.student** %10, align 8
  br label %93

93:                                               ; preds = %85
  %94 = load i32, i32* %8, align 4
  %95 = add nsw i32 %94, 1
  store i32 %95, i32* %8, align 4
  br label %82

96:                                               ; preds = %82
  %97 = load %struct.student*, %struct.student** %10, align 8
  %98 = getelementptr inbounds %struct.student, %struct.student* %97, i32 0, i32 0
  %99 = getelementptr inbounds [100 x i8], [100 x i8]* %98, i64 0, i64 0
  %100 = call i32 (i8*, ...) @printf(i8* getelementptr inbounds ([3 x i8], [3 x i8]* @.str, i64 0, i64 0), i8* %99)
  br label %101

101:                                              ; preds = %96, %74, %71
  %102 = call i32 (i8*, ...) @printf(i8* getelementptr inbounds ([2 x i8], [2 x i8]* @.str.3, i64 0, i64 0))
  br label %103

103:                                              ; preds = %101
  %104 = load i32, i32* %7, align 4
  %105 = add nsw i32 %104, 1
  store i32 %105, i32* %7, align 4
  br label %47

106:                                              ; preds = %47
  %107 = load i32, i32* %1, align 4
  ret i32 %107
}

; Function Attrs: nounwind
declare dso_local noalias i8* @malloc(i64) #1

declare dso_local i32 @__isoc99_scanf(i8*, ...) #2

; Function Attrs: nounwind readonly
declare dso_local i32 @strcmp(i8*, i8*) #3

declare dso_local i32 @printf(i8*, ...) #2


!llvm.module.flags = !{!0}
!llvm.ident = !{!1}

!0 = !{i32 1, !"wchar_size", i32 4}
!1 = !{!"clang version 10.0.0-4ubuntu1 "}
